; Function Attrs: mustprogress uwtable
define hidden noundef i64 @_ZN2TH21THFile_readLongScalarEPNS_8THFile__E(ptr noundef %0) local_unnamed_addr #3 {
  %2 = alloca i64, align 8
  call void @llvm.lifetime.start.p0(i64 8, ptr nonnull %2) #8
  %3 = load ptr, ptr %0, align 8, !tbaa !3
  %4 = getelementptr inbounds nuw i8, ptr %3, i64 40
  %5 = load ptr, ptr %4, align 8, !tbaa !15
  %6 = call noundef i64 %5(ptr noundef nonnull %0, ptr noundef nonnull %2, i64 noundef 1)
  %7 = load i64, ptr %2, align 8, !tbaa !35
  call void @llvm.lifetime.end.p0(i64 8, ptr nonnull %2) #8
  ret i64 %7
}